; Function Attrs: nounwind uwtable
define void @Gia_ManCollapseDeref(ptr noundef %0, ptr noundef captures(none) %1) local_unnamed_addr #0 {
  %3 = getelementptr i8, ptr %1, i64 4
  %.val10 = load i32, ptr %3, align 4, !tbaa !56
  %4 = icmp sgt i32 %.val10, 0
  br i1 %4, label %.lr.ph, label %.critedge

.lr.ph:                                           ; preds = %2
  %5 = getelementptr i8, ptr %1, i64 8
  br label %6

6:                                                ; preds = %.lr.ph, %10
  %.val13 = phi i32 [ %.val10, %.lr.ph ], [ %.val, %10 ]
  %indvars.iv = phi i64 [ 0, %.lr.ph ], [ %indvars.iv.next, %10 ]
  %.val9 = load ptr, ptr %5, align 8, !tbaa !58
  %7 = getelementptr inbounds nuw ptr, ptr %.val9, i64 %indvars.iv
  %8 = load ptr, ptr %7, align 8, !tbaa !59
  %.not = icmp eq ptr %8, null
  br i1 %.not, label %10, label %9

9:                                                ; preds = %6
  tail call void @Cudd_RecursiveDeref(ptr noundef %0, ptr noundef nonnull %8) #14
  %.val.pre = load i32, ptr %3, align 4, !tbaa !56
  br label %10

10:                                               ; preds = %6, %9
  %.val = phi i32 [ %.val13, %6 ], [ %.val.pre, %9 ]
  %indvars.iv.next = add nuw nsw i64 %indvars.iv, 1
  %11 = sext i32 %.val to i64
  %12 = icmp slt i64 %indvars.iv.next, %11
  br i1 %12, label %6, label %.critedge, !llvm.loop !60

.critedge:                                        ; preds = %10, %2
  %13 = getelementptr inbounds nuw i8, ptr %1, i64 8
  %14 = load ptr, ptr %13, align 8, !tbaa !58
  %.not.i = icmp eq ptr %14, null
  br i1 %.not.i, label %Vec_PtrFree.exit, label %15

15:                                               ; preds = %.critedge
  tail call void @free(ptr noundef nonnull %14) #14
  br label %Vec_PtrFree.exit

Vec_PtrFree.exit:                                 ; preds = %.critedge, %15
  tail call void @free(ptr noundef nonnull %1) #14
  ret void
}